target datalayout = "e-m:e-p270:32:32-p271:32:32-p272:64:64-i64:64-i128:128-f80:128-n8:16:32:64-S128"
target triple = "x86_64-pc-linux-gnu"

; Function Attrs: mustprogress nounwind uwtable
define internal noundef zeroext i1 @_ZL14parse_int_charPPcPiPh(ptr noundef %0, ptr noundef %1, ptr noundef %2) #4 {
  %4 = alloca ptr, align 8
  %5 = alloca ptr, align 8
  %6 = alloca ptr, align 8
  %7 = alloca ptr, align 8
  %8 = alloca i8, align 1
  store ptr %0, ptr %4, align 8, !tbaa !8
  store ptr %1, ptr %5, align 8, !tbaa !97
  store ptr %2, ptr %6, align 8, !tbaa !24
  call void @llvm.lifetime.start.p0(i64 8, ptr %7) #19
  call void @llvm.lifetime.start.p0(i64 1, ptr %8) #19
  %9 = load ptr, ptr %4, align 8, !tbaa !8
  %10 = load ptr, ptr %9, align 8, !tbaa !24
  store ptr %10, ptr %7, align 8, !tbaa !24
  br label %11

11:                                               ; preds = %18, %3
  %12 = load ptr, ptr %4, align 8, !tbaa !8
  %13 = load ptr, ptr %12, align 8, !tbaa !24
  %14 = getelementptr inbounds i8, ptr %13, i64 0
  %15 = load i8, ptr %14, align 1, !tbaa !91
  %16 = sext i8 %15 to i32
  %17 = icmp eq i32 %16, 32
  br i1 %17, label %18, label %22

18:                                               ; preds = %11
  %19 = load ptr, ptr %4, align 8, !tbaa !8
  %20 = load ptr, ptr %19, align 8, !tbaa !24
  %21 = getelementptr inbounds nuw i8, ptr %20, i32 1
  store ptr %21, ptr %19, align 8, !tbaa !24
  br label %11, !llvm.loop !260

22:                                               ; preds = %11
  store i8 0, ptr %8, align 1, !tbaa !25
  %23 = load ptr, ptr %6, align 8, !tbaa !24
  store i8 32, ptr %23, align 1, !tbaa !91
  %24 = load ptr, ptr %4, align 8, !tbaa !8
  %25 = load ptr, ptr %24, align 8, !tbaa !24
  %26 = getelementptr inbounds i8, ptr %25, i64 0
  %27 = load i8, ptr %26, align 1, !tbaa !91
  %28 = sext i8 %27 to i32
  %29 = call i32 @isdigit(i32 noundef %28) #23
  %30 = icmp ne i32 %29, 0
  br i1 %30, label %31, label %95

31:                                               ; preds = %22
  %32 = load ptr, ptr %4, align 8, !tbaa !8
  %33 = load ptr, ptr %32, align 8, !tbaa !24
  %34 = getelementptr inbounds i8, ptr %33, i64 0
  %35 = load i8, ptr %34, align 1, !tbaa !91
  %36 = sext i8 %35 to i32
  %37 = sub nsw i32 %36, 48
  %38 = load ptr, ptr %5, align 8, !tbaa !97
  store i32 %37, ptr %38, align 4, !tbaa !4
  %39 = load ptr, ptr %4, align 8, !tbaa !8
  %40 = load ptr, ptr %39, align 8, !tbaa !24
  %41 = getelementptr inbounds nuw i8, ptr %40, i32 1
  store ptr %41, ptr %39, align 8, !tbaa !24
  br label %42

42:                                               ; preds = %50, %31
  %43 = load ptr, ptr %4, align 8, !tbaa !8
  %44 = load ptr, ptr %43, align 8, !tbaa !24
  %45 = getelementptr inbounds i8, ptr %44, i64 0
  %46 = load i8, ptr %45, align 1, !tbaa !91
  %47 = sext i8 %46 to i32
  %48 = call i32 @isdigit(i32 noundef %47) #23
  %49 = icmp ne i32 %48, 0
  br i1 %49, label %50, label %65

50:                                               ; preds = %42
  %51 = load ptr, ptr %5, align 8, !tbaa !97
  %52 = load i32, ptr %51, align 4, !tbaa !4
  %53 = mul nsw i32 %52, 10
  %54 = load ptr, ptr %4, align 8, !tbaa !8
  %55 = load ptr, ptr %54, align 8, !tbaa !24
  %56 = getelementptr inbounds i8, ptr %55, i64 0
  %57 = load i8, ptr %56, align 1, !tbaa !91
  %58 = sext i8 %57 to i32
  %59 = add nsw i32 %53, %58
  %60 = sub nsw i32 %59, 48
  %61 = load ptr, ptr %5, align 8, !tbaa !97
  store i32 %60, ptr %61, align 4, !tbaa !4
  %62 = load ptr, ptr %4, align 8, !tbaa !8
  %63 = load ptr, ptr %62, align 8, !tbaa !24
  %64 = getelementptr inbounds nuw i8, ptr %63, i32 1
  store ptr %64, ptr %62, align 8, !tbaa !24
  br label %42, !llvm.loop !261

65:                                               ; preds = %42
  %66 = load ptr, ptr %4, align 8, !tbaa !8
  %67 = load ptr, ptr %66, align 8, !tbaa !24
  %68 = getelementptr inbounds i8, ptr %67, i64 0
  %69 = load i8, ptr %68, align 1, !tbaa !91
  %70 = sext i8 %69 to i32
  %71 = call i32 @isalpha(i32 noundef %70) #23
  %72 = icmp ne i32 %71, 0
  br i1 %72, label %73, label %82

73:                                               ; preds = %65
  %74 = load ptr, ptr %4, align 8, !tbaa !8
  %75 = load ptr, ptr %74, align 8, !tbaa !24
  %76 = getelementptr inbounds i8, ptr %75, i64 0
  %77 = load i8, ptr %76, align 1, !tbaa !91
  %78 = load ptr, ptr %6, align 8, !tbaa !24
  store i8 %77, ptr %78, align 1, !tbaa !91
  %79 = load ptr, ptr %4, align 8, !tbaa !8
  %80 = load ptr, ptr %79, align 8, !tbaa !24
  %81 = getelementptr inbounds nuw i8, ptr %80, i32 1
  store ptr %81, ptr %79, align 8, !tbaa !24
  br label %82

82:                                               ; preds = %73, %65
  %83 = load ptr, ptr %4, align 8, !tbaa !8
  %84 = load ptr, ptr %83, align 8, !tbaa !24
  %85 = getelementptr inbounds i8, ptr %84, i64 0
  %86 = load i8, ptr %85, align 1, !tbaa !91
  %87 = sext i8 %86 to i32
  %88 = call i32 @isalnum(i32 noundef %87) #23
  %89 = icmp ne i32 %88, 0
  br i1 %89, label %91, label %90

90:                                               ; preds = %82
  store i8 1, ptr %8, align 1, !tbaa !25
  br label %94

91:                                               ; preds = %82
  %92 = load ptr, ptr %7, align 8, !tbaa !24
  %93 = load ptr, ptr %4, align 8, !tbaa !8
  store ptr %92, ptr %93, align 8, !tbaa !24
  br label %94

94:                                               ; preds = %91, %90
  br label %97

95:                                               ; preds = %22
  %96 = load ptr, ptr %5, align 8, !tbaa !97
  store i32 -92637, ptr %96, align 4, !tbaa !4
  br label %97

97:                                               ; preds = %95, %94
  %98 = load i8, ptr %8, align 1, !tbaa !25, !range !47, !noundef !48
  %99 = trunc i8 %98 to i1
  call void @llvm.lifetime.end.p0(i64 1, ptr %8) #19
  call void @llvm.lifetime.end.p0(i64 8, ptr %7) #19
  ret i1 %99
}

; Function Attrs: mustprogress uwtable
define internal noundef zeroext i1 @_ZL9parse_intPPcPi(ptr noundef %0, ptr noundef %1) #0 {
  %3 = alloca ptr, align 8
  %4 = alloca ptr, align 8
  %5 = alloca ptr, align 8
  %6 = alloca i8, align 1
  %7 = alloca i8, align 1
  store ptr %0, ptr %3, align 8, !tbaa !8
  store ptr %1, ptr %4, align 8, !tbaa !97
  call void @llvm.lifetime.start.p0(i64 8, ptr %5) #19
  call void @llvm.lifetime.start.p0(i64 1, ptr %6) #19
  call void @llvm.lifetime.start.p0(i64 1, ptr %7) #19
  %8 = load ptr, ptr %3, align 8, !tbaa !8
  %9 = load ptr, ptr %8, align 8, !tbaa !24
  store ptr %9, ptr %5, align 8, !tbaa !24
  %10 = load ptr, ptr %3, align 8, !tbaa !8
  %11 = load ptr, ptr %4, align 8, !tbaa !97
  %12 = call noundef zeroext i1 @_ZL14parse_int_charPPcPiPh(ptr noundef %10, ptr noundef %11, ptr noundef %6)
  %13 = zext i1 %12 to i8
  store i8 %13, ptr %7, align 1, !tbaa !25
  %14 = load i8, ptr %7, align 1, !tbaa !25, !range !47, !noundef !48
  %15 = trunc i8 %14 to i1
  br i1 %15, label %16, label %23

16:                                               ; preds = %2
  %17 = load i8, ptr %6, align 1, !tbaa !91
  %18 = zext i8 %17 to i32
  %19 = icmp ne i32 %18, 32
  br i1 %19, label %20, label %23

20:                                               ; preds = %16
  %21 = load ptr, ptr %5, align 8, !tbaa !24
  %22 = load ptr, ptr %3, align 8, !tbaa !8
  store ptr %21, ptr %22, align 8, !tbaa !24
  store i8 0, ptr %7, align 1, !tbaa !25
  br label %23

23:                                               ; preds = %20, %16, %2
  %24 = load i8, ptr %7, align 1, !tbaa !25, !range !47, !noundef !48
  %25 = trunc i8 %24 to i1
  call void @llvm.lifetime.end.p0(i64 1, ptr %7) #19
  call void @llvm.lifetime.end.p0(i64 1, ptr %6) #19
  call void @llvm.lifetime.end.p0(i64 8, ptr %5) #19
  ret i1 %25
}