; Function Attrs: mustprogress nofree nounwind memory(read, argmem: readwrite) uwtable
define internal fastcc noundef zeroext i1 @_ZL9parse_intPPcPi(ptr noundef nonnull captures(none) %0, ptr noundef nonnull writeonly captures(none) %1) unnamed_addr #16 {
  %3 = load ptr, ptr %0, align 8, !tbaa !21
  %4 = load i8, ptr %3, align 1, !tbaa !32
  %5 = icmp eq i8 %4, 32
  br i1 %5, label %.lr.ph.i, label %._crit_edge.i

.lr.ph.i:                                         ; preds = %2, %.lr.ph.i
  %6 = phi ptr [ %7, %.lr.ph.i ], [ %3, %2 ]
  %7 = getelementptr inbounds nuw i8, ptr %6, i64 1
  store ptr %7, ptr %0, align 8, !tbaa !21
  %8 = load i8, ptr %7, align 1, !tbaa !32
  %9 = icmp eq i8 %8, 32
  br i1 %9, label %.lr.ph.i, label %._crit_edge.i, !llvm.loop !67

._crit_edge.i:                                    ; preds = %.lr.ph.i, %2
  %10 = phi i8 [ %4, %2 ], [ %8, %.lr.ph.i ]
  %11 = phi ptr [ %3, %2 ], [ %7, %.lr.ph.i ]
  %12 = sext i8 %10 to i32
  %isdigittmp.i = add nsw i32 %12, -48
  %isdigit.i = icmp ult i32 %isdigittmp.i, 10
  br i1 %isdigit.i, label %.preheader.i, label %29

.preheader.i:                                     ; preds = %._crit_edge.i
  store i32 %isdigittmp.i, ptr %1, align 4, !tbaa !4
  %storemerge29.i = getelementptr inbounds nuw i8, ptr %11, i64 1
  store ptr %storemerge29.i, ptr %0, align 8, !tbaa !21
  %13 = load i8, ptr %storemerge29.i, align 1, !tbaa !32
  %14 = sext i8 %13 to i32
  %isdigittmp2130.i = add nsw i32 %14, -48
  %isdigit2231.i = icmp ult i32 %isdigittmp2130.i, 10
  br i1 %isdigit2231.i, label %.lr.ph34.i, label %._crit_edge35.i

.lr.ph34.i:                                       ; preds = %.preheader.i, %.lr.ph34.i
  %15 = phi i32 [ %19, %.lr.ph34.i ], [ %14, %.preheader.i ]
  %storemerge33.i = phi ptr [ %storemerge.i, %.lr.ph34.i ], [ %storemerge29.i, %.preheader.i ]
  %storemerge2432.i = phi i32 [ %storemerge24.i, %.lr.ph34.i ], [ %isdigittmp.i, %.preheader.i ]
  %16 = mul nsw i32 %storemerge2432.i, 10
  %17 = add nsw i32 %15, -48
  %storemerge24.i = add i32 %17, %16
  store i32 %storemerge24.i, ptr %1, align 4, !tbaa !4
  %storemerge.i = getelementptr inbounds nuw i8, ptr %storemerge33.i, i64 1
  store ptr %storemerge.i, ptr %0, align 8, !tbaa !21
  %18 = load i8, ptr %storemerge.i, align 1, !tbaa !32
  %19 = sext i8 %18 to i32
  %isdigittmp21.i = add nsw i32 %19, -48
  %isdigit22.i = icmp ult i32 %isdigittmp21.i, 10
  br i1 %isdigit22.i, label %.lr.ph34.i, label %._crit_edge35.i, !llvm.loop !68

._crit_edge35.i:                                  ; preds = %.lr.ph34.i, %.preheader.i
  %20 = phi ptr [ %11, %.preheader.i ], [ %storemerge33.i, %.lr.ph34.i ]
  %.lcssa25.i = phi i8 [ %13, %.preheader.i ], [ %18, %.lr.ph34.i ]
  %.lcssa.i = phi i32 [ %14, %.preheader.i ], [ %19, %.lr.ph34.i ]
  %21 = tail call i32 @isalpha(i32 noundef %.lcssa.i) #31
  %.not.i = icmp eq i32 %21, 0
  br i1 %.not.i, label %.thread, label %22

22:                                               ; preds = %._crit_edge35.i
  %23 = getelementptr inbounds nuw i8, ptr %20, i64 2
  store ptr %23, ptr %0, align 8, !tbaa !21
  %.pre.i = load i8, ptr %23, align 1, !tbaa !32
  %24 = sext i8 %.pre.i to i32
  %25 = tail call i32 @isalnum(i32 noundef %24) #31
  %.not23.i = icmp eq i32 %25, 0
  br i1 %.not23.i, label %_ZL14parse_int_charPPcPiPh.exit, label %28

.thread:                                          ; preds = %._crit_edge35.i
  %26 = sext i8 %.lcssa25.i to i32
  %27 = tail call i32 @isalnum(i32 noundef %26) #31
  %.not23.i15 = icmp eq i32 %27, 0
  br i1 %.not23.i15, label %_ZL14parse_int_charPPcPiPh.exit.thread, label %28

28:                                               ; preds = %.thread, %22
  store ptr %3, ptr %0, align 8, !tbaa !21
  br label %_ZL14parse_int_charPPcPiPh.exit.thread

29:                                               ; preds = %._crit_edge.i
  store i32 -92637, ptr %1, align 4, !tbaa !4
  br label %_ZL14parse_int_charPPcPiPh.exit.thread

_ZL14parse_int_charPPcPiPh.exit:                  ; preds = %22
  %.not = icmp eq i8 %.lcssa25.i, 32
  br i1 %.not, label %_ZL14parse_int_charPPcPiPh.exit.thread, label %30

30:                                               ; preds = %_ZL14parse_int_charPPcPiPh.exit
  store ptr %3, ptr %0, align 8, !tbaa !21
  br label %_ZL14parse_int_charPPcPiPh.exit.thread

_ZL14parse_int_charPPcPiPh.exit.thread:           ; preds = %.thread, %29, %28, %30, %_ZL14parse_int_charPPcPiPh.exit
  %.0 = phi i1 [ false, %30 ], [ true, %_ZL14parse_int_charPPcPiPh.exit ], [ false, %28 ], [ false, %29 ], [ true, %.thread ]
  ret i1 %.0
}